target datalayout = "e-m:e-p270:32:32-p271:32:32-p272:64:64-i64:64-i128:128-f80:128-n8:16:32:64-S128"
target triple = "x86_64-pc-linux-gnu"

%class.symbol = type { ptr }

@.str.7 = private unnamed_addr constant [15 x i8] c"sieve_relation\00", align 1
@_ZN7datalog21sieve_relation_pluginC1ERNS_16relation_managerE = hidden unnamed_addr alias void (ptr, ptr), ptr @_ZN7datalog21sieve_relation_pluginC2ERNS_16relation_managerE

; Function Attrs: mustprogress uwtable
define linkonce_odr hidden void @_ZN7datalog16relation_manager15register_pluginEPNS_15relation_pluginE(ptr noundef nonnull align 8 dereferenceable(200) %0, ptr noundef %1) #4 comdat align 2 {
  %3 = alloca ptr, align 8
  %4 = alloca ptr, align 8
  store ptr %0, ptr %3, align 8, !tbaa !93
  store ptr %1, ptr %4, align 8, !tbaa !26
  %5 = load ptr, ptr %3, align 8
  %6 = load ptr, ptr %4, align 8, !tbaa !26
  call void @_ZN7datalog16relation_manager29register_relation_plugin_implEPNS_15relation_pluginE(ptr noundef nonnull align 8 dereferenceable(200) %5, ptr noundef %6)
  ret void
}

; Function Attrs: mustprogress uwtable
define linkonce_odr hidden ptr @_ZN7datalog21sieve_relation_plugin8get_nameEv() #4 comdat align 2 {
  %1 = alloca %class.symbol, align 8
  call void @_ZN6symbolC1EPKc(ptr noundef nonnull align 8 dereferenceable(8) %1, ptr noundef @.str.7)
  %2 = getelementptr inbounds nuw %class.symbol, ptr %1, i32 0, i32 0
  %3 = load ptr, ptr %2, align 8
  ret ptr %3
}

; Function Attrs: mustprogress uwtable
define hidden noundef nonnull align 8 dereferenceable(104) ptr @_ZN7datalog21sieve_relation_plugin10get_pluginERNS_16relation_managerE(ptr noundef nonnull align 8 dereferenceable(200) %0) #4 align 2 {
  %2 = alloca ptr, align 8
  %3 = alloca ptr, align 8
  %4 = alloca %class.symbol, align 8
  store ptr %0, ptr %2, align 8, !tbaa !93
  call void @llvm.lifetime.start.p0(i64 8, ptr %3) #3
  %5 = load ptr, ptr %2, align 8, !tbaa !93
  call void @llvm.lifetime.start.p0(i64 8, ptr %4) #3
  %6 = call ptr @_ZN7datalog21sieve_relation_plugin8get_nameEv()
  %7 = getelementptr inbounds nuw %class.symbol, ptr %4, i32 0, i32 0
  store ptr %6, ptr %7, align 8
  %8 = call noundef ptr @_ZN7datalog16relation_manager19get_relation_pluginERK6symbol(ptr noundef nonnull align 8 dereferenceable(200) %5, ptr noundef nonnull align 8 dereferenceable(8) %4)
  call void @llvm.lifetime.end.p0(i64 8, ptr %4) #3
  store ptr %8, ptr %3, align 8, !tbaa !8
  %9 = load ptr, ptr %3, align 8, !tbaa !8
  %10 = icmp ne ptr %9, null
  br i1 %10, label %16, label %11

11:                                               ; preds = %1
  %12 = call noalias noundef ptr @_ZN6memory8allocateEm(i64 noundef 104)
  %13 = load ptr, ptr %2, align 8, !tbaa !93
  call void @_ZN7datalog21sieve_relation_pluginC1ERNS_16relation_managerE(ptr noundef nonnull align 8 dereferenceable(104) %12, ptr noundef nonnull align 8 dereferenceable(200) %13)
  store ptr %12, ptr %3, align 8, !tbaa !8
  %14 = load ptr, ptr %2, align 8, !tbaa !93
  %15 = load ptr, ptr %3, align 8, !tbaa !8
  call void @_ZN7datalog16relation_manager15register_pluginEPNS_15relation_pluginE(ptr noundef nonnull align 8 dereferenceable(200) %14, ptr noundef %15)
  br label %16

16:                                               ; preds = %11, %1
  %17 = load ptr, ptr %3, align 8, !tbaa !8
  call void @llvm.lifetime.end.p0(i64 8, ptr %3) #3
  ret ptr %17
}