; Function Attrs: mustprogress uwtable
define hidden noundef nonnull align 8 dereferenceable(104) ptr @_ZN7datalog21sieve_relation_plugin10get_pluginERNS_16relation_managerE(ptr noundef nonnull align 8 dereferenceable(200) %0) local_unnamed_addr #3 align 2 {
  %2 = alloca %class.symbol, align 8
  call void @llvm.lifetime.start.p0(i64 8, ptr nonnull %2) #23
  call void @_ZN6symbolC1EPKc(ptr noundef nonnull align 8 dereferenceable(8) %2, ptr noundef nonnull @.str.7)
  %3 = call noundef ptr @_ZN7datalog16relation_manager19get_relation_pluginERK6symbol(ptr noundef nonnull align 8 dereferenceable(200) %0, ptr noundef nonnull align 8 dereferenceable(8) %2)
  call void @llvm.lifetime.end.p0(i64 8, ptr nonnull %2) #23
  %.not = icmp eq ptr %3, null
  br i1 %.not, label %4, label %6

4:                                                ; preds = %1
  %5 = call noalias noundef ptr @_ZN6memory8allocateEm(i64 noundef 104)
  call void @_ZN7datalog21sieve_relation_pluginC2ERNS_16relation_managerE(ptr noundef nonnull align 8 dereferenceable(104) %5, ptr noundef nonnull align 8 dereferenceable(200) %0)
  call void @_ZN7datalog16relation_manager29register_relation_plugin_implEPNS_15relation_pluginE(ptr noundef nonnull align 8 dereferenceable(200) %0, ptr noundef nonnull %5)
  br label %6

6:                                                ; preds = %4, %1
  %.0 = phi ptr [ %3, %1 ], [ %5, %4 ]
  ret ptr %.0
}